target datalayout = "e-m:e-p270:32:32-p271:32:32-p272:64:64-i64:64-i128:128-f80:128-n8:16:32:64-S128"
target triple = "x86_64-pc-linux-gnu"

%struct.anon.0 = type { i32, i32, double }

@.str.17 = private unnamed_addr constant [25 x i8] c"../openssl/test/bntest.c\00", align 1
@.str.612 = private unnamed_addr constant [10 x i8] c"n_success\00", align 1
@.str.613 = private unnamed_addr constant [18 x i8] c"binomial_critical\00", align 1
@.str.614 = private unnamed_addr constant [60 x i8] c"This test is expected to fail by chance 0.01%% of the time.\00", align 1
@.str.615 = private unnamed_addr constant [49 x i8] c"counts = OPENSSL_zalloc(sizeof(*counts) * range)\00", align 1
@.str.616 = private unnamed_addr constant [15 x i8] c"rng = BN_new()\00", align 1
@.str.617 = private unnamed_addr constant [15 x i8] c"val = BN_new()\00", align 1
@.str.618 = private unnamed_addr constant [24 x i8] c"BN_set_word(rng, range)\00", align 1
@.str.619 = private unnamed_addr constant [24 x i8] c"BN_rand_range(val, rng)\00", align 1
@.str.620 = private unnamed_addr constant [35 x i8] c"v = (unsigned int)BN_get_word(val)\00", align 1
@.str.621 = private unnamed_addr constant [6 x i8] c"range\00", align 1
@.str.622 = private unnamed_addr constant [32 x i8] c"Chi^2 test negative %.4f > %4.f\00", align 1
@.str.623 = private unnamed_addr constant [39 x i8] c"test case %zu  range %u  iterations %u\00", align 1

; Function Attrs: nounwind uwtable
define internal i32 @test_rand_range_single(i64 noundef %0) #0 {
  %2 = alloca i64, align 8
  %3 = alloca i32, align 4
  %4 = alloca i32, align 4
  %5 = alloca double, align 8
  %6 = alloca double, align 8
  %7 = alloca double, align 8
  %8 = alloca ptr, align 8
  %9 = alloca ptr, align 8
  %10 = alloca ptr, align 8
  %11 = alloca i32, align 4
  %12 = alloca i32, align 4
  %13 = alloca i32, align 4
  %14 = alloca double, align 8
  store i64 %0, ptr %2, align 8, !tbaa !30
  call void @llvm.lifetime.start.p0(i64 4, ptr %3) #7
  %15 = load i64, ptr %2, align 8, !tbaa !30
  %16 = getelementptr inbounds nuw [37 x %struct.anon.0], ptr @rand_range_cases, i64 0, i64 %15
  %17 = getelementptr inbounds nuw %struct.anon.0, ptr %16, i32 0, i32 0
  %18 = load i32, ptr %17, align 16, !tbaa !87
  store i32 %18, ptr %3, align 4, !tbaa !4
  call void @llvm.lifetime.start.p0(i64 4, ptr %4) #7
  %19 = load i64, ptr %2, align 8, !tbaa !30
  %20 = getelementptr inbounds nuw [37 x %struct.anon.0], ptr @rand_range_cases, i64 0, i64 %19
  %21 = getelementptr inbounds nuw %struct.anon.0, ptr %20, i32 0, i32 1
  %22 = load i32, ptr %21, align 4, !tbaa !90
  store i32 %22, ptr %4, align 4, !tbaa !4
  call void @llvm.lifetime.start.p0(i64 8, ptr %5) #7
  %23 = load i64, ptr %2, align 8, !tbaa !30
  %24 = getelementptr inbounds nuw [37 x %struct.anon.0], ptr @rand_range_cases, i64 0, i64 %23
  %25 = getelementptr inbounds nuw %struct.anon.0, ptr %24, i32 0, i32 2
  %26 = load double, ptr %25, align 8, !tbaa !91
  store double %26, ptr %5, align 8, !tbaa !92
  call void @llvm.lifetime.start.p0(i64 8, ptr %6) #7
  %27 = load i32, ptr %4, align 4, !tbaa !4
  %28 = uitofp i32 %27 to double
  %29 = load i32, ptr %3, align 4, !tbaa !4
  %30 = uitofp i32 %29 to double
  %31 = fdiv double %28, %30
  store double %31, ptr %6, align 8, !tbaa !92
  call void @llvm.lifetime.start.p0(i64 8, ptr %7) #7
  store double 0.000000e+00, ptr %7, align 8, !tbaa !92
  call void @llvm.lifetime.start.p0(i64 8, ptr %8) #7
  store ptr null, ptr %8, align 8, !tbaa !13
  call void @llvm.lifetime.start.p0(i64 8, ptr %9) #7
  store ptr null, ptr %9, align 8, !tbaa !13
  call void @llvm.lifetime.start.p0(i64 8, ptr %10) #7
  call void @llvm.lifetime.start.p0(i64 4, ptr %11) #7
  call void @llvm.lifetime.start.p0(i64 4, ptr %12) #7
  call void @llvm.lifetime.start.p0(i64 4, ptr %13) #7
  store i32 0, ptr %13, align 4, !tbaa !4
  %32 = load i32, ptr %3, align 4, !tbaa !4
  %33 = zext i32 %32 to i64
  %34 = mul i64 8, %33
  %35 = call noalias ptr @CRYPTO_zalloc(i64 noundef %34, ptr noundef @.str.17, i32 noundef 2358)
  store ptr %35, ptr %10, align 8, !tbaa !93
  %36 = call i32 @test_ptr(ptr noundef @.str.17, i32 noundef 2358, ptr noundef @.str.615, ptr noundef %35)
  %37 = icmp ne i32 %36, 0
  br i1 %37, label %38, label %55

38:                                               ; preds = %1
  %39 = call ptr @BN_new()
  store ptr %39, ptr %8, align 8, !tbaa !13
  %40 = call i32 @test_ptr(ptr noundef @.str.17, i32 noundef 2359, ptr noundef @.str.616, ptr noundef %39)
  %41 = icmp ne i32 %40, 0
  br i1 %41, label %42, label %55

42:                                               ; preds = %38
  %43 = call ptr @BN_new()
  store ptr %43, ptr %9, align 8, !tbaa !13
  %44 = call i32 @test_ptr(ptr noundef @.str.17, i32 noundef 2360, ptr noundef @.str.617, ptr noundef %43)
  %45 = icmp ne i32 %44, 0
  br i1 %45, label %46, label %55

46:                                               ; preds = %42
  %47 = load ptr, ptr %8, align 8, !tbaa !13
  %48 = load i32, ptr %3, align 4, !tbaa !4
  %49 = zext i32 %48 to i64
  %50 = call i32 @BN_set_word(ptr noundef %47, i64 noundef %49)
  %51 = icmp ne i32 %50, 0
  %52 = zext i1 %51 to i32
  %53 = call i32 @test_true(ptr noundef @.str.17, i32 noundef 2361, ptr noundef @.str.618, i32 noundef %52)
  %54 = icmp ne i32 %53, 0
  br i1 %54, label %56, label %55

55:                                               ; preds = %46, %42, %38, %1
  br label %123

56:                                               ; preds = %46
  store i32 0, ptr %11, align 4, !tbaa !4
  br label %57

57:                                               ; preds = %84, %56
  %58 = load i32, ptr %11, align 4, !tbaa !4
  %59 = load i32, ptr %4, align 4, !tbaa !4
  %60 = icmp ult i32 %58, %59
  br i1 %60, label %61, label %87

61:                                               ; preds = %57
  %62 = load ptr, ptr %9, align 8, !tbaa !13
  %63 = load ptr, ptr %8, align 8, !tbaa !13
  %64 = call i32 @BN_rand_range(ptr noundef %62, ptr noundef %63)
  %65 = icmp ne i32 %64, 0
  %66 = zext i1 %65 to i32
  %67 = call i32 @test_true(ptr noundef @.str.17, i32 noundef 2364, ptr noundef @.str.619, i32 noundef %66)
  %68 = icmp ne i32 %67, 0
  br i1 %68, label %69, label %76

69:                                               ; preds = %61
  %70 = load ptr, ptr %9, align 8, !tbaa !13
  %71 = call i64 @BN_get_word(ptr noundef %70)
  %72 = trunc i64 %71 to i32
  store i32 %72, ptr %12, align 4, !tbaa !4
  %73 = load i32, ptr %3, align 4, !tbaa !4
  %74 = call i32 @test_uint_lt(ptr noundef @.str.17, i32 noundef 2365, ptr noundef @.str.620, ptr noundef @.str.621, i32 noundef %72, i32 noundef %73)
  %75 = icmp ne i32 %74, 0
  br i1 %75, label %77, label %76

76:                                               ; preds = %69, %61
  br label %123

77:                                               ; preds = %69
  %78 = load ptr, ptr %10, align 8, !tbaa !93
  %79 = load i32, ptr %12, align 4, !tbaa !4
  %80 = zext i32 %79 to i64
  %81 = getelementptr inbounds nuw i64, ptr %78, i64 %80
  %82 = load i64, ptr %81, align 8, !tbaa !30
  %83 = add i64 %82, 1
  store i64 %83, ptr %81, align 8, !tbaa !30
  br label %84

84:                                               ; preds = %77
  %85 = load i32, ptr %11, align 4, !tbaa !4
  %86 = add i32 %85, 1
  store i32 %86, ptr %11, align 4, !tbaa !4
  br label %57, !llvm.loop !95

87:                                               ; preds = %57
  store i32 0, ptr %11, align 4, !tbaa !4
  br label %88

88:                                               ; preds = %105, %87
  %89 = load i32, ptr %11, align 4, !tbaa !4
  %90 = load i32, ptr %3, align 4, !tbaa !4
  %91 = icmp ult i32 %89, %90
  br i1 %91, label %92, label %108

92:                                               ; preds = %88
  call void @llvm.lifetime.start.p0(i64 8, ptr %14) #7
  %93 = load ptr, ptr %10, align 8, !tbaa !93
  %94 = load i32, ptr %11, align 4, !tbaa !4
  %95 = zext i32 %94 to i64
  %96 = getelementptr inbounds nuw i64, ptr %93, i64 %95
  %97 = load i64, ptr %96, align 8, !tbaa !30
  %98 = uitofp i64 %97 to double
  %99 = load double, ptr %6, align 8, !tbaa !92
  %100 = fsub double %98, %99
  store double %100, ptr %14, align 8, !tbaa !92
  %101 = load double, ptr %14, align 8, !tbaa !92
  %102 = load double, ptr %14, align 8, !tbaa !92
  %103 = load double, ptr %7, align 8, !tbaa !92
  %104 = call double @llvm.fmuladd.f64(double %101, double %102, double %103)
  store double %104, ptr %7, align 8, !tbaa !92
  call void @llvm.lifetime.end.p0(i64 8, ptr %14) #7
  br label %105

105:                                              ; preds = %92
  %106 = load i32, ptr %11, align 4, !tbaa !4
  %107 = add i32 %106, 1
  store i32 %107, ptr %11, align 4, !tbaa !4
  br label %88, !llvm.loop !96

108:                                              ; preds = %88
  %109 = load double, ptr %6, align 8, !tbaa !92
  %110 = load double, ptr %7, align 8, !tbaa !92
  %111 = fdiv double %110, %109
  store double %111, ptr %7, align 8, !tbaa !92
  %112 = load double, ptr %7, align 8, !tbaa !92
  %113 = load double, ptr %5, align 8, !tbaa !92
  %114 = fcmp ogt double %112, %113
  br i1 %114, label %115, label %122

115:                                              ; preds = %108
  %116 = load double, ptr %7, align 8, !tbaa !92
  %117 = load double, ptr %5, align 8, !tbaa !92
  call void (ptr, i32, ptr, ...) @test_info(ptr noundef @.str.17, i32 noundef 2377, ptr noundef @.str.622, double noundef %116, double noundef %117)
  %118 = load i64, ptr %2, align 8, !tbaa !30
  %119 = add i64 %118, 1
  %120 = load i32, ptr %3, align 4, !tbaa !4
  %121 = load i32, ptr %4, align 4, !tbaa !4
  call void (ptr, ...) @test_note(ptr noundef @.str.623, i64 noundef %119, i32 noundef %120, i32 noundef %121)
  br label %123

122:                                              ; preds = %108
  store i32 1, ptr %13, align 4, !tbaa !4
  br label %123

123:                                              ; preds = %122, %115, %76, %55
  %124 = load ptr, ptr %8, align 8, !tbaa !13
  call void @BN_free(ptr noundef %124)
  %125 = load ptr, ptr %9, align 8, !tbaa !13
  call void @BN_free(ptr noundef %125)
  %126 = load ptr, ptr %10, align 8, !tbaa !93
  call void @CRYPTO_free(ptr noundef %126, ptr noundef @.str.17, i32 noundef 2387)
  %127 = load i32, ptr %13, align 4, !tbaa !4
  call void @llvm.lifetime.end.p0(i64 4, ptr %13) #7
  call void @llvm.lifetime.end.p0(i64 4, ptr %12) #7
  call void @llvm.lifetime.end.p0(i64 4, ptr %11) #7
  call void @llvm.lifetime.end.p0(i64 8, ptr %10) #7
  call void @llvm.lifetime.end.p0(i64 8, ptr %9) #7
  call void @llvm.lifetime.end.p0(i64 8, ptr %8) #7
  call void @llvm.lifetime.end.p0(i64 8, ptr %7) #7
  call void @llvm.lifetime.end.p0(i64 8, ptr %6) #7
  call void @llvm.lifetime.end.p0(i64 8, ptr %5) #7
  call void @llvm.lifetime.end.p0(i64 4, ptr %4) #7
  call void @llvm.lifetime.end.p0(i64 4, ptr %3) #7
  ret i32 %127
}

; Function Attrs: nounwind uwtable
define internal i32 @test_rand_range() #0 {
  %1 = alloca i32, align 4
  %2 = alloca i32, align 4
  %3 = alloca i64, align 8
  %4 = alloca i32, align 4
  call void @llvm.lifetime.start.p0(i64 4, ptr %2) #7
  store i32 0, ptr %2, align 4, !tbaa !4
  call void @llvm.lifetime.start.p0(i64 8, ptr %3) #7
  store i64 0, ptr %3, align 8, !tbaa !30
  br label %5

5:                                                ; preds = %13, %0
  %6 = load i64, ptr %3, align 8, !tbaa !30
  %7 = icmp ult i64 %6, 37
  br i1 %7, label %8, label %16

8:                                                ; preds = %5
  %9 = load i64, ptr %3, align 8, !tbaa !30
  %10 = call i32 @test_rand_range_single(i64 noundef %9)
  %11 = load i32, ptr %2, align 4, !tbaa !4
  %12 = add nsw i32 %11, %10
  store i32 %12, ptr %2, align 4, !tbaa !4
  br label %13

13:                                               ; preds = %8
  %14 = load i64, ptr %3, align 8, !tbaa !30
  %15 = add i64 %14, 1
  store i64 %15, ptr %3, align 8, !tbaa !30
  br label %5, !llvm.loop !69

16:                                               ; preds = %5
  %17 = load i32, ptr %2, align 4, !tbaa !4
  %18 = call i32 @test_int_ge(ptr noundef @.str.17, i32 noundef 2398, ptr noundef @.str.612, ptr noundef @.str.613, i32 noundef %17, i32 noundef 29)
  %19 = icmp ne i32 %18, 0
  br i1 %19, label %20, label %21

20:                                               ; preds = %16
  store i32 1, ptr %1, align 4
  store i32 1, ptr %4, align 4
  br label %22

21:                                               ; preds = %16
  call void (ptr, ...) @test_note(ptr noundef @.str.614)
  store i32 0, ptr %1, align 4
  store i32 1, ptr %4, align 4
  br label %22

22:                                               ; preds = %21, %20
  call void @llvm.lifetime.end.p0(i64 8, ptr %3) #7
  call void @llvm.lifetime.end.p0(i64 4, ptr %2) #7
  %23 = load i32, ptr %1, align 4
  ret i32 %23
}