; Function Attrs: nounwind uwtable
define internal range(i32 0, 2) i32 @test_rand_range() #1 {
  br label %1

1:                                                ; preds = %0, %test_rand_range_single.exit
  %.09 = phi i64 [ 0, %0 ], [ %50, %test_rand_range_single.exit ]
  %.068 = phi i32 [ 0, %0 ], [ %49, %test_rand_range_single.exit ]
  %2 = getelementptr inbounds nuw [37 x %struct.anon.0], ptr @rand_range_cases, i64 0, i64 %.09
  %3 = load i32, ptr %2, align 16, !tbaa !61
  %4 = getelementptr inbounds nuw i8, ptr %2, i64 4
  %5 = load i32, ptr %4, align 4, !tbaa !64
  %6 = getelementptr inbounds nuw i8, ptr %2, i64 8
  %7 = load double, ptr %6, align 8, !tbaa !65
  %8 = uitofp i32 %5 to double
  %9 = uitofp i32 %3 to double
  %10 = fdiv double %8, %9
  %11 = zext i32 %3 to i64
  %12 = shl nuw nsw i64 %11, 3
  %13 = tail call noalias ptr @CRYPTO_zalloc(i64 noundef %12, ptr noundef nonnull @.str.17, i32 noundef 2358) #8
  %14 = tail call i32 @test_ptr(ptr noundef nonnull @.str.17, i32 noundef 2358, ptr noundef nonnull @.str.615, ptr noundef %13) #8
  %.not.i = icmp eq i32 %14, 0
  br i1 %.not.i, label %test_rand_range_single.exit, label %15

15:                                               ; preds = %1
  %16 = tail call ptr @BN_new() #8
  %17 = tail call i32 @test_ptr(ptr noundef nonnull @.str.17, i32 noundef 2359, ptr noundef nonnull @.str.616, ptr noundef %16) #8
  %.not46.i = icmp eq i32 %17, 0
  br i1 %.not46.i, label %test_rand_range_single.exit, label %18

18:                                               ; preds = %15
  %19 = tail call ptr @BN_new() #8
  %20 = tail call i32 @test_ptr(ptr noundef nonnull @.str.17, i32 noundef 2360, ptr noundef nonnull @.str.617, ptr noundef %19) #8
  %.not47.i = icmp eq i32 %20, 0
  br i1 %.not47.i, label %test_rand_range_single.exit, label %21

21:                                               ; preds = %18
  %22 = tail call i32 @BN_set_word(ptr noundef %16, i64 noundef %11) #8
  %23 = icmp ne i32 %22, 0
  %24 = zext i1 %23 to i32
  %25 = tail call i32 @test_true(ptr noundef nonnull @.str.17, i32 noundef 2361, ptr noundef nonnull @.str.618, i32 noundef %24) #8
  %.not48.i = icmp eq i32 %25, 0
  br i1 %.not48.i, label %test_rand_range_single.exit, label %.preheader51.i

.preheader51.i:                                   ; preds = %21
  %.not56.i = icmp eq i32 %5, 0
  br i1 %.not56.i, label %.preheader.i, label %.lr.ph.i

.preheader.i:                                     ; preds = %34, %.preheader51.i
  %.not57.i = icmp eq i32 %3, 0
  br i1 %.not57.i, label %._crit_edge.i, label %.lr.ph55.i

.lr.ph.i:                                         ; preds = %.preheader51.i, %34
  %.04052.i = phi i32 [ %39, %34 ], [ 0, %.preheader51.i ]
  %26 = tail call i32 @BN_rand_range(ptr noundef %19, ptr noundef %16) #8
  %27 = icmp ne i32 %26, 0
  %28 = zext i1 %27 to i32
  %29 = tail call i32 @test_true(ptr noundef nonnull @.str.17, i32 noundef 2364, ptr noundef nonnull @.str.619, i32 noundef %28) #8
  %.not49.i = icmp eq i32 %29, 0
  br i1 %.not49.i, label %test_rand_range_single.exit, label %30

30:                                               ; preds = %.lr.ph.i
  %31 = tail call i64 @BN_get_word(ptr noundef %19) #8
  %32 = trunc i64 %31 to i32
  %33 = tail call i32 @test_uint_lt(ptr noundef nonnull @.str.17, i32 noundef 2365, ptr noundef nonnull @.str.620, ptr noundef nonnull @.str.621, i32 noundef %32, i32 noundef %3) #8
  %.not50.i = icmp eq i32 %33, 0
  br i1 %.not50.i, label %test_rand_range_single.exit, label %34

34:                                               ; preds = %30
  %35 = and i64 %31, 4294967295
  %36 = getelementptr inbounds nuw i64, ptr %13, i64 %35
  %37 = load i64, ptr %36, align 8, !tbaa !66
  %38 = add i64 %37, 1
  store i64 %38, ptr %36, align 8, !tbaa !66
  %39 = add nuw i32 %.04052.i, 1
  %exitcond.not.i = icmp eq i32 %39, %5
  br i1 %exitcond.not.i, label %.preheader.i, label %.lr.ph.i, !llvm.loop !67

.lr.ph55.i:                                       ; preds = %.preheader.i, %.lr.ph55.i
  %indvars.iv.i = phi i64 [ %indvars.iv.next.i, %.lr.ph55.i ], [ 0, %.preheader.i ]
  %.054.i = phi double [ %44, %.lr.ph55.i ], [ 0.000000e+00, %.preheader.i ]
  %40 = getelementptr inbounds nuw i64, ptr %13, i64 %indvars.iv.i
  %41 = load i64, ptr %40, align 8, !tbaa !66
  %42 = uitofp i64 %41 to double
  %43 = fsub double %42, %10
  %44 = tail call double @llvm.fmuladd.f64(double %43, double %43, double %.054.i)
  %indvars.iv.next.i = add nuw nsw i64 %indvars.iv.i, 1
  %exitcond59.not.i = icmp eq i64 %indvars.iv.next.i, %11
  br i1 %exitcond59.not.i, label %._crit_edge.i, label %.lr.ph55.i, !llvm.loop !68

._crit_edge.i:                                    ; preds = %.lr.ph55.i, %.preheader.i
  %.0.lcssa.i = phi double [ 0.000000e+00, %.preheader.i ], [ %44, %.lr.ph55.i ]
  %45 = fdiv double %.0.lcssa.i, %10
  %46 = fcmp ogt double %45, %7
  br i1 %46, label %47, label %test_rand_range_single.exit

47:                                               ; preds = %._crit_edge.i
  tail call void (ptr, i32, ptr, ...) @test_info(ptr noundef nonnull @.str.17, i32 noundef 2377, ptr noundef nonnull @.str.622, double noundef %45, double noundef %7) #8
  %48 = add nuw nsw i64 %.09, 1
  tail call void (ptr, ...) @test_note(ptr noundef nonnull @.str.623, i64 noundef %48, i32 noundef %3, i32 noundef %5) #8
  br label %test_rand_range_single.exit

test_rand_range_single.exit:                      ; preds = %.lr.ph.i, %30, %1, %15, %18, %21, %._crit_edge.i, %47
  %.041.i = phi ptr [ %19, %47 ], [ %19, %21 ], [ %19, %18 ], [ null, %15 ], [ null, %1 ], [ %19, %._crit_edge.i ], [ %19, %30 ], [ %19, %.lr.ph.i ]
  %.039.i = phi ptr [ %16, %47 ], [ %16, %21 ], [ %16, %18 ], [ %16, %15 ], [ null, %1 ], [ %16, %._crit_edge.i ], [ %16, %30 ], [ %16, %.lr.ph.i ]
  %.038.i = phi i32 [ 0, %47 ], [ 0, %21 ], [ 0, %18 ], [ 0, %15 ], [ 0, %1 ], [ 1, %._crit_edge.i ], [ 0, %30 ], [ 0, %.lr.ph.i ]
  tail call void @BN_free(ptr noundef %.039.i) #8
  tail call void @BN_free(ptr noundef %.041.i) #8
  tail call void @CRYPTO_free(ptr noundef %13, ptr noundef nonnull @.str.17, i32 noundef 2387) #8
  %49 = add nuw nsw i32 %.038.i, %.068
  %50 = add nuw nsw i64 %.09, 1
  %exitcond.not = icmp eq i64 %50, 37
  br i1 %exitcond.not, label %51, label %1, !llvm.loop !69

51:                                               ; preds = %test_rand_range_single.exit
  %52 = tail call i32 @test_int_ge(ptr noundef nonnull @.str.17, i32 noundef 2398, ptr noundef nonnull @.str.612, ptr noundef nonnull @.str.613, i32 noundef %49, i32 noundef 29) #8
  %.not = icmp eq i32 %52, 0
  br i1 %.not, label %53, label %54

53:                                               ; preds = %51
  tail call void (ptr, ...) @test_note(ptr noundef nonnull @.str.614) #8
  br label %54

54:                                               ; preds = %51, %53
  %.07 = phi i32 [ 0, %53 ], [ 1, %51 ]
  ret i32 %.07
}